target datalayout = "e-m:e-p270:32:32-p271:32:32-p272:64:64-i64:64-i128:128-f80:128-n8:16:32:64-S128"
target triple = "x86_64-unknown-linux-gnu"

%"class.std::chrono::duration" = type { i64 }
%"class.proxygen::SessionPool" = type { %"class.proxygen::SessionHolder::Callback", ptr, i32, %"class.std::chrono::duration", %"class.std::chrono::duration", %"class.boost::intrusive::list", %"class.boost::intrusive::list", %"class.boost::intrusive::list", ptr, ptr, ptr }
%"class.proxygen::SessionHolder::Callback" = type { ptr }
%"class.boost::intrusive::list" = type { %"class.boost::intrusive::list_impl" }
%"class.boost::intrusive::list_impl" = type { %"struct.boost::intrusive::list_impl<boost::intrusive::mhtraits<proxygen::SessionHolder, boost::intrusive::list_member_hook<boost::intrusive::link_mode<boost::intrusive::safe_link>>, &proxygen::SessionHolder::listHook>, unsigned long, true, void>::data_t" }
%"struct.boost::intrusive::list_impl<boost::intrusive::mhtraits<proxygen::SessionHolder, boost::intrusive::list_member_hook<boost::intrusive::link_mode<boost::intrusive::safe_link>>, &proxygen::SessionHolder::listHook>, unsigned long, true, void>::data_t" = type { %"struct.boost::intrusive::list_impl<boost::intrusive::mhtraits<proxygen::SessionHolder, boost::intrusive::list_member_hook<boost::intrusive::link_mode<boost::intrusive::safe_link>>, &proxygen::SessionHolder::listHook>, unsigned long, true, void>::root_plus_size" }
%"struct.boost::intrusive::list_impl<boost::intrusive::mhtraits<proxygen::SessionHolder, boost::intrusive::list_member_hook<boost::intrusive::link_mode<boost::intrusive::safe_link>>, &proxygen::SessionHolder::listHook>, unsigned long, true, void>::root_plus_size" = type { %"struct.boost::intrusive::detail::size_holder", %"struct.boost::intrusive::detail::default_header_holder" }
%"struct.boost::intrusive::detail::size_holder" = type { i64 }
%"struct.boost::intrusive::detail::default_header_holder" = type { %"struct.boost::intrusive::list_node" }
%"struct.boost::intrusive::list_node" = type { ptr, ptr }
%"class.boost::intrusive::list_iterator.49" = type { %"struct.boost::intrusive::iiterator_members" }
%"struct.boost::intrusive::iiterator_members" = type { ptr }
%"class.boost::intrusive::list_iterator" = type { %"struct.boost::intrusive::iiterator_members" }
%"class.boost::intrusive::detail::null_disposer" = type { i8 }

; Function Attrs: mustprogress nounwind uwtable
define linkonce_odr void @_ZN5boost9intrusive6detail13null_disposerclIPN8proxygen13SessionHolderEEEvT_(ptr noundef nonnull align 1 dereferenceable(1) %this, ptr noundef %0) #5 comdat align 2 {
entry:
  %this.addr = alloca ptr, align 8
  %.addr = alloca ptr, align 8
  store ptr %this, ptr %this.addr, align 8
  store ptr %0, ptr %.addr, align 8
  ret void
}

; Function Attrs: mustprogress nounwind uwtable
define linkonce_odr void @_ZN5boost9intrusive24circular_list_algorithmsINS0_16list_node_traitsIPvEEE4initEPNS0_9list_nodeIS3_EE(ptr noundef %this_node) #5 comdat align 2 {
entry:
  %n.addr.i1 = alloca ptr, align 8
  %prev.addr.i = alloca ptr, align 8
  %n.addr.i = alloca ptr, align 8
  %next.addr.i = alloca ptr, align 8
  %this_node.addr = alloca ptr, align 8
  %null_node = alloca ptr, align 8
  store ptr %this_node, ptr %this_node.addr, align 8
  store ptr null, ptr %null_node, align 8
  %0 = load ptr, ptr %this_node.addr, align 8
  store ptr %0, ptr %n.addr.i, align 8
  store ptr null, ptr %next.addr.i, align 8
  %1 = load ptr, ptr %next.addr.i, align 8
  %2 = load ptr, ptr %n.addr.i, align 8
  store ptr %1, ptr %2, align 8
  %3 = load ptr, ptr %this_node.addr, align 8
  store ptr %3, ptr %n.addr.i1, align 8
  store ptr null, ptr %prev.addr.i, align 8
  %4 = load ptr, ptr %prev.addr.i, align 8
  %5 = load ptr, ptr %n.addr.i1, align 8
  %prev_.i = getelementptr inbounds %"struct.boost::intrusive::list_node", ptr %5, i32 0, i32 1
  store ptr %4, ptr %prev_.i, align 8
  ret void
}

; Function Attrs: mustprogress nounwind uwtable
define linkonce_odr noundef ptr @_ZN5boost9intrusive24circular_list_algorithmsINS0_16list_node_traitsIPvEEE6unlinkEPNS0_9list_nodeIS3_EE(ptr noundef %this_node) #5 comdat align 2 {
entry:
  %n.addr.i4 = alloca ptr, align 8
  %n.addr.i3 = alloca ptr, align 8
  %prev.addr.i = alloca ptr, align 8
  %n.addr.i2 = alloca ptr, align 8
  %next.addr.i = alloca ptr, align 8
  %n.addr.i = alloca ptr, align 8
  %this_node.addr = alloca ptr, align 8
  %next = alloca ptr, align 8
  %prev = alloca ptr, align 8
  store ptr %this_node, ptr %this_node.addr, align 8
  %0 = load ptr, ptr %this_node.addr, align 8
  store ptr %0, ptr %n.addr.i, align 8
  %1 = load ptr, ptr %n.addr.i, align 8
  %2 = load ptr, ptr %1, align 8
  store ptr %2, ptr %next, align 8
  %3 = load ptr, ptr %this_node.addr, align 8
  store ptr %3, ptr %n.addr.i4, align 8
  %4 = load ptr, ptr %n.addr.i4, align 8
  %prev_.i5 = getelementptr inbounds %"struct.boost::intrusive::list_node", ptr %4, i32 0, i32 1
  %5 = load ptr, ptr %prev_.i5, align 8
  store ptr %5, ptr %prev, align 8
  %6 = load ptr, ptr %prev, align 8
  %7 = load ptr, ptr %next, align 8
  store ptr %6, ptr %n.addr.i2, align 8
  store ptr %7, ptr %next.addr.i, align 8
  %8 = load ptr, ptr %next.addr.i, align 8
  %9 = load ptr, ptr %n.addr.i2, align 8
  store ptr %8, ptr %9, align 8
  %10 = load ptr, ptr %next, align 8
  %11 = load ptr, ptr %prev, align 8
  store ptr %10, ptr %n.addr.i3, align 8
  store ptr %11, ptr %prev.addr.i, align 8
  %12 = load ptr, ptr %prev.addr.i, align 8
  %13 = load ptr, ptr %n.addr.i3, align 8
  %prev_.i = getelementptr inbounds %"struct.boost::intrusive::list_node", ptr %13, i32 0, i32 1
  store ptr %12, ptr %prev_.i, align 8
  %14 = load ptr, ptr %next, align 8
  ret ptr %14
}

; Function Attrs: mustprogress nounwind uwtable
define linkonce_odr void @_ZN5boost9intrusive9list_implINS0_8mhtraitsIN8proxygen13SessionHolderENS0_16list_member_hookIJNS0_9link_modeILNS0_14link_mode_typeE1EEEEEEXadL_ZNS4_8listHookEEEEEmLb1EvE17erase_and_disposeINS0_6detail13null_disposerEEENS0_13list_iteratorISA_Lb0EEENSF_ISA_Lb1EEET_(ptr noalias sret(%"class.boost::intrusive::list_iterator") align 8 %agg.result, ptr noundef nonnull align 8 dereferenceable(24) %this, ptr noundef %i) #5 comdat align 2 personality ptr @__gxx_personality_v0 {
entry:
  %this.addr.i27 = alloca ptr, align 8
  %this.addr.i25 = alloca ptr, align 8
  %this.addr.i5.i = alloca ptr, align 8
  %n_ptr.addr.i.i = alloca ptr, align 8
  %.addr.i.i = alloca ptr, align 8
  %this.addr.i3.i = alloca ptr, align 8
  %nodeptr.addr.i.i = alloca ptr, align 8
  %traits_ptr.addr.i.i = alloca ptr, align 8
  %this.addr.i.i = alloca ptr, align 8
  %result.ptr.i = alloca ptr, align 8
  %this.addr.i22 = alloca ptr, align 8
  %this.addr.i20 = alloca ptr, align 8
  %ptr_to_member.addr.i19 = alloca i64, align 8
  %parent.i = alloca ptr, align 8
  %member.i = alloca ptr, align 8
  %v.addr.i = alloca ptr, align 8
  %p.addr.i = alloca ptr, align 8
  %member.addr.i = alloca ptr, align 8
  %ptr_to_member.addr.i = alloca i64, align 8
  %r.addr.i = alloca ptr, align 8
  %n.addr.i17 = alloca ptr, align 8
  %this.addr.i15 = alloca ptr, align 8
  %n.addr.i = alloca ptr, align 8
  %this.addr.i11 = alloca ptr, align 8
  %this.addr.i9 = alloca ptr, align 8
  %p.i = alloca ptr, align 8
  %this.addr.i = alloca ptr, align 8
  %result.ptr = alloca ptr, align 8
  %disposer = alloca %"class.boost::intrusive::detail::null_disposer", align 1
  %this.addr = alloca ptr, align 8
  %i.indirect_addr = alloca ptr, align 8
  %to_erase = alloca ptr, align 8
  store ptr %agg.result, ptr %result.ptr, align 8
  store ptr %this, ptr %this.addr, align 8
  store ptr %i, ptr %i.indirect_addr, align 8
  %this1 = load ptr, ptr %this.addr, align 8
  store ptr %i, ptr %this.addr.i, align 8
  %this1.i = load ptr, ptr %this.addr.i, align 8
  %0 = load ptr, ptr %this1.i, align 8
  store ptr %0, ptr %to_erase, align 8
  store ptr %i, ptr %this.addr.i9, align 8
  %this1.i10 = load ptr, ptr %this.addr.i9, align 8
  %1 = load ptr, ptr %this1.i10, align 8
  store ptr %1, ptr %n.addr.i17, align 8
  %2 = load ptr, ptr %n.addr.i17, align 8
  %3 = load ptr, ptr %2, align 8
  store ptr %3, ptr %p.i, align 8
  %4 = load ptr, ptr %p.i, align 8
  store ptr %4, ptr %this1.i10, align 8
  %5 = load ptr, ptr %to_erase, align 8
  %call3 = call noundef ptr @_ZN5boost9intrusive24circular_list_algorithmsINS0_16list_node_traitsIPvEEE6unlinkEPNS0_9list_nodeIS3_EE(ptr noundef %5) #3
  store ptr %this1, ptr %this.addr.i15, align 8
  %this1.i16 = load ptr, ptr %this.addr.i15, align 8
  store ptr %this1.i16, ptr %this.addr.i20, align 8
  %this1.i21 = load ptr, ptr %this.addr.i20, align 8
  %6 = load i64, ptr %this1.i21, align 8
  %dec.i = add i64 %6, -1
  store i64 %dec.i, ptr %this1.i21, align 8
  br label %invoke.cont

invoke.cont:                                      ; preds = %entry
  %7 = load ptr, ptr %to_erase, align 8
  call void @_ZN5boost9intrusive24circular_list_algorithmsINS0_16list_node_traitsIPvEEE4initEPNS0_9list_nodeIS3_EE(ptr noundef %7) #3
  store ptr %this1, ptr %this.addr.i11, align 8
  %8 = load ptr, ptr %to_erase, align 8
  store ptr %8, ptr %n.addr.i, align 8
  %9 = load ptr, ptr %n.addr.i, align 8
  store ptr %9, ptr %p.addr.i, align 8
  %10 = load ptr, ptr %p.addr.i, align 8
  store ptr %10, ptr %member.addr.i, align 8
  store i64 8, ptr %ptr_to_member.addr.i, align 8
  %11 = load ptr, ptr %member.addr.i, align 8
  %12 = load i64, ptr %ptr_to_member.addr.i, align 8
  store i64 %12, ptr %ptr_to_member.addr.i19, align 8
  store ptr null, ptr %parent.i, align 8
  %13 = load i64, ptr %ptr_to_member.addr.i19, align 8
  %memptr.offset.i = getelementptr inbounds i8, ptr null, i64 %13
  store ptr %memptr.offset.i, ptr %member.i, align 8
  %14 = load ptr, ptr %member.i, align 8
  %sub.ptr.lhs.cast.i = ptrtoint ptr %14 to i64
  %idx.neg.i = sub i64 0, %sub.ptr.lhs.cast.i
  %add.ptr.i = getelementptr inbounds i8, ptr %11, i64 %idx.neg.i
  br label %_ZN5boost9intrusive8mhtraitsIN8proxygen13SessionHolderENS0_16list_member_hookIJNS0_9link_modeILNS0_14link_mode_typeE1EEEEEEXadL_ZNS3_8listHookEEEE12to_value_ptrEPNS0_9list_nodeIPvEE.exit

_ZN5boost9intrusive8mhtraitsIN8proxygen13SessionHolderENS0_16list_member_hookIJNS0_9link_modeILNS0_14link_mode_typeE1EEEEEEXadL_ZNS3_8listHookEEEE12to_value_ptrEPNS0_9list_nodeIPvEE.exit: ; preds = %invoke.cont
  store ptr %add.ptr.i, ptr %r.addr.i, align 8
  %15 = load ptr, ptr %r.addr.i, align 8
  store ptr %15, ptr %v.addr.i, align 8
  %16 = load ptr, ptr %v.addr.i, align 8
  br label %invoke.cont6

invoke.cont6:                                     ; preds = %_ZN5boost9intrusive8mhtraitsIN8proxygen13SessionHolderENS0_16list_member_hookIJNS0_9link_modeILNS0_14link_mode_typeE1EEEEEEXadL_ZNS3_8listHookEEEE12to_value_ptrEPNS0_9list_nodeIPvEE.exit
  call void @_ZN5boost9intrusive6detail13null_disposerclIPN8proxygen13SessionHolderEEEvT_(ptr noundef nonnull align 1 dereferenceable(1) %disposer, ptr noundef %16)
  call void @llvm.experimental.noalias.scope.decl(metadata !26)
  store ptr %agg.result, ptr %result.ptr.i, align 8, !noalias !26
  store ptr %i, ptr %this.addr.i22, align 8, !noalias !26
  %this1.i23 = load ptr, ptr %this.addr.i22, align 8, !noalias !26
  store ptr %this1.i23, ptr %this.addr.i.i, align 8, !noalias !26
  %this1.i.i = load ptr, ptr %this.addr.i.i, align 8, !noalias !26
  %17 = load ptr, ptr %this1.i.i, align 8
  store ptr %this1.i23, ptr %this.addr.i25, align 8
  %this1.i26 = load ptr, ptr %this.addr.i25, align 8
  store ptr %this1.i26, ptr %this.addr.i27, align 8
  br label %_ZNK5boost9intrusive13list_iteratorINS0_8mhtraitsIN8proxygen13SessionHolderENS0_16list_member_hookIJNS0_9link_modeILNS0_14link_mode_typeE1EEEEEEXadL_ZNS4_8listHookEEEEELb1EE7unconstEv.exit

_ZNK5boost9intrusive13list_iteratorINS0_8mhtraitsIN8proxygen13SessionHolderENS0_16list_member_hookIJNS0_9link_modeILNS0_14link_mode_typeE1EEEEEEXadL_ZNS4_8listHookEEEEELb1EE7unconstEv.exit: ; preds = %invoke.cont6
  store ptr %agg.result, ptr %this.addr.i3.i, align 8, !noalias !26
  store ptr %17, ptr %nodeptr.addr.i.i, align 8, !noalias !26
  store ptr null, ptr %traits_ptr.addr.i.i, align 8, !noalias !26
  %this1.i4.i = load ptr, ptr %this.addr.i3.i, align 8, !noalias !26
  store ptr %this1.i4.i, ptr %this.addr.i5.i, align 8, !noalias !26
  store ptr %nodeptr.addr.i.i, ptr %n_ptr.addr.i.i, align 8, !noalias !26
  store ptr %traits_ptr.addr.i.i, ptr %.addr.i.i, align 8, !noalias !26
  %this1.i6.i = load ptr, ptr %this.addr.i5.i, align 8, !noalias !26
  %18 = load ptr, ptr %n_ptr.addr.i.i, align 8, !noalias !26
  %19 = load ptr, ptr %18, align 8
  store ptr %19, ptr %this1.i6.i, align 8
  br label %invoke.cont8

invoke.cont8:                                     ; preds = %_ZNK5boost9intrusive13list_iteratorINS0_8mhtraitsIN8proxygen13SessionHolderENS0_16list_member_hookIJNS0_9link_modeILNS0_14link_mode_typeE1EEEEEEXadL_ZNS4_8listHookEEEEELb1EE7unconstEv.exit
  ret void

terminate.lpad:                                   ; No predecessors!
  %20 = landingpad { ptr, i32 }
          catch ptr null
  %21 = extractvalue { ptr, i32 } %20, 0
  call void @__clang_call_terminate(ptr %21) #15
  unreachable
}

; Function Attrs: noreturn nounwind uwtable
define linkonce_odr hidden void @__clang_call_terminate(ptr noundef %0) #7 comdat {
  %2 = call ptr @__cxa_begin_catch(ptr %0) #3
  call void @_ZSt9terminatev() #15
  unreachable
}

; Function Attrs: mustprogress nounwind uwtable
define linkonce_odr void @_ZN5boost9intrusive9list_implINS0_8mhtraitsIN8proxygen13SessionHolderENS0_16list_member_hookIJNS0_9link_modeILNS0_14link_mode_typeE1EEEEEEXadL_ZNS4_8listHookEEEEEmLb1EvE11iterator_toERS4_(ptr noalias sret(%"class.boost::intrusive::list_iterator") align 8 %agg.result, ptr noundef nonnull align 8 dereferenceable(24) %this, ptr noundef nonnull align 8 dereferenceable(152) %value) #5 comdat align 2 personality ptr @__gxx_personality_v0 {
entry:
  %v.addr.i.i = alloca ptr, align 8
  %r.addr.i.i = alloca ptr, align 8
  %value.addr.i = alloca ptr, align 8
  %this.addr.i12 = alloca ptr, align 8
  %n_ptr.addr.i = alloca ptr, align 8
  %.addr.i = alloca ptr, align 8
  %v.addr.i = alloca ptr, align 8
  %this.addr.i10 = alloca ptr, align 8
  %r.addr.i = alloca ptr, align 8
  %this.addr.i7 = alloca ptr, align 8
  %nodeptr.addr.i = alloca ptr, align 8
  %traits_ptr.addr.i = alloca ptr, align 8
  %this.addr.i5 = alloca ptr, align 8
  %this.addr.i = alloca ptr, align 8
  %result.ptr = alloca ptr, align 8
  %this.addr = alloca ptr, align 8
  %value.addr = alloca ptr, align 8
  store ptr %agg.result, ptr %result.ptr, align 8
  store ptr %this, ptr %this.addr, align 8
  store ptr %value, ptr %value.addr, align 8
  %this1 = load ptr, ptr %this.addr, align 8
  store ptr %this1, ptr %this.addr.i, align 8
  %0 = load ptr, ptr %value.addr, align 8
  store ptr %0, ptr %value.addr.i, align 8
  %1 = load ptr, ptr %value.addr.i, align 8
  %memptr.offset.i = getelementptr inbounds i8, ptr %1, i64 8
  store ptr %memptr.offset.i, ptr %r.addr.i.i, align 8
  %2 = load ptr, ptr %r.addr.i.i, align 8
  store ptr %2, ptr %v.addr.i.i, align 8
  %3 = load ptr, ptr %v.addr.i.i, align 8
  br label %invoke.cont

invoke.cont:                                      ; preds = %entry
  store ptr %this1, ptr %this.addr.i5, align 8
  %this1.i6 = load ptr, ptr %this.addr.i5, align 8
  store ptr %this1.i6, ptr %this.addr.i10, align 8
  %this1.i11 = load ptr, ptr %this.addr.i10, align 8
  store ptr %this1.i11, ptr %r.addr.i, align 8
  %4 = load ptr, ptr %r.addr.i, align 8
  store ptr %4, ptr %v.addr.i, align 8
  %5 = load ptr, ptr %v.addr.i, align 8
  store ptr %agg.result, ptr %this.addr.i7, align 8
  store ptr %3, ptr %nodeptr.addr.i, align 8
  store ptr %5, ptr %traits_ptr.addr.i, align 8
  %this1.i8 = load ptr, ptr %this.addr.i7, align 8
  store ptr %this1.i8, ptr %this.addr.i12, align 8
  store ptr %nodeptr.addr.i, ptr %n_ptr.addr.i, align 8
  store ptr %traits_ptr.addr.i, ptr %.addr.i, align 8
  %this1.i13 = load ptr, ptr %this.addr.i12, align 8
  %6 = load ptr, ptr %n_ptr.addr.i, align 8
  %7 = load ptr, ptr %6, align 8
  store ptr %7, ptr %this1.i13, align 8
  br label %invoke.cont4

invoke.cont4:                                     ; preds = %invoke.cont
  ret void

terminate.lpad:                                   ; No predecessors!
  %8 = landingpad { ptr, i32 }
          catch ptr null
  %9 = extractvalue { ptr, i32 } %8, 0
  call void @__clang_call_terminate(ptr %9) #15
  unreachable
}

; Function Attrs: mustprogress uwtable
define void @_ZN8proxygen11SessionPool12detachFilledEPNS_13SessionHolderE(ptr noundef nonnull align 8 dereferenceable(136) %this, ptr noundef %sess) unnamed_addr #4 align 2 personality ptr @__gxx_personality_v0 {
entry:
  %this.addr.i.i21 = alloca ptr, align 8
  %this.addr.i22 = alloca ptr, align 8
  %this.addr.i19 = alloca ptr, align 8
  %this.addr.i17 = alloca ptr, align 8
  %this.addr.i14 = alloca ptr, align 8
  %this.addr.i4.i = alloca ptr, align 8
  %n_ptr.addr.i.i = alloca ptr, align 8
  %.addr.i.i = alloca ptr, align 8
  %this.addr.i.i = alloca ptr, align 8
  %this.addr.i7 = alloca ptr, align 8
  %other.addr.i8 = alloca ptr, align 8
  %ref.tmp.i9 = alloca ptr, align 8
  %ref.tmp2.i10 = alloca ptr, align 8
  %this.addr.i5 = alloca ptr, align 8
  %n_ptr.addr.i = alloca ptr, align 8
  %.addr.i = alloca ptr, align 8
  %this.addr.i3 = alloca ptr, align 8
  %other.addr.i = alloca ptr, align 8
  %ref.tmp.i = alloca ptr, align 8
  %ref.tmp2.i = alloca ptr, align 8
  %result.ptr.i = alloca ptr, align 8
  %this.addr.i = alloca ptr, align 8
  %i.indirect_addr.i = alloca ptr, align 8
  %agg.tmp.i = alloca %"class.boost::intrusive::list_iterator.49", align 8
  %this.addr = alloca ptr, align 8
  %sess.addr = alloca ptr, align 8
  %agg.tmp = alloca %"class.boost::intrusive::list_iterator.49", align 8
  %ref.tmp = alloca %"class.boost::intrusive::list_iterator", align 8
  %tmp = alloca %"class.boost::intrusive::list_iterator", align 8
  store ptr %this, ptr %this.addr, align 8
  store ptr %sess, ptr %sess.addr, align 8
  %this1 = load ptr, ptr %this.addr, align 8
  %fullSessionList_ = getelementptr inbounds %"class.proxygen::SessionPool", ptr %this1, i32 0, i32 7
  %fullSessionList_2 = getelementptr inbounds %"class.proxygen::SessionPool", ptr %this1, i32 0, i32 7
  %0 = load ptr, ptr %sess.addr, align 8
  call void @_ZN5boost9intrusive9list_implINS0_8mhtraitsIN8proxygen13SessionHolderENS0_16list_member_hookIJNS0_9link_modeILNS0_14link_mode_typeE1EEEEEEXadL_ZNS4_8listHookEEEEEmLb1EvE11iterator_toERS4_(ptr sret(%"class.boost::intrusive::list_iterator") align 8 %ref.tmp, ptr noundef nonnull align 8 dereferenceable(24) %fullSessionList_2, ptr noundef nonnull align 8 dereferenceable(152) %0) #3
  store ptr %agg.tmp, ptr %this.addr.i3, align 8
  store ptr %ref.tmp, ptr %other.addr.i, align 8
  %this1.i4 = load ptr, ptr %this.addr.i3, align 8
  %1 = load ptr, ptr %other.addr.i, align 8
  store ptr %1, ptr %this.addr.i19, align 8
  %this1.i20 = load ptr, ptr %this.addr.i19, align 8
  %2 = load ptr, ptr %this1.i20, align 8
  store ptr %2, ptr %ref.tmp.i, align 8
  %3 = load ptr, ptr %other.addr.i, align 8
  store ptr %3, ptr %this.addr.i22, align 8
  %this1.i23 = load ptr, ptr %this.addr.i22, align 8
  store ptr %this1.i23, ptr %this.addr.i.i21, align 8
  store ptr null, ptr %ref.tmp2.i, align 8
  store ptr %this1.i4, ptr %this.addr.i5, align 8
  store ptr %ref.tmp.i, ptr %n_ptr.addr.i, align 8
  store ptr %ref.tmp2.i, ptr %.addr.i, align 8
  %this1.i6 = load ptr, ptr %this.addr.i5, align 8
  %4 = load ptr, ptr %n_ptr.addr.i, align 8
  %5 = load ptr, ptr %4, align 8
  store ptr %5, ptr %this1.i6, align 8
  call void @llvm.experimental.noalias.scope.decl(metadata !16)
  store ptr %tmp, ptr %result.ptr.i, align 8, !noalias !16
  store ptr %fullSessionList_, ptr %this.addr.i, align 8, !noalias !16
  store ptr %agg.tmp, ptr %i.indirect_addr.i, align 8, !noalias !16
  %this1.i = load ptr, ptr %this.addr.i, align 8, !noalias !16
  store ptr %agg.tmp.i, ptr %this.addr.i7, align 8
  store ptr %agg.tmp, ptr %other.addr.i8, align 8
  %this1.i11 = load ptr, ptr %this.addr.i7, align 8
  %6 = load ptr, ptr %other.addr.i8, align 8
  store ptr %6, ptr %this.addr.i.i, align 8
  %this1.i.i = load ptr, ptr %this.addr.i.i, align 8
  %7 = load ptr, ptr %this1.i.i, align 8
  store ptr %7, ptr %ref.tmp.i9, align 8
  %8 = load ptr, ptr %other.addr.i8, align 8
  store ptr %8, ptr %this.addr.i14, align 8
  %this1.i15 = load ptr, ptr %this.addr.i14, align 8
  store ptr %this1.i15, ptr %this.addr.i17, align 8
  br label %_ZN5boost9intrusive13list_iteratorINS0_8mhtraitsIN8proxygen13SessionHolderENS0_16list_member_hookIJNS0_9link_modeILNS0_14link_mode_typeE1EEEEEEXadL_ZNS4_8listHookEEEEELb1EEC2ERKSB_.exit

_ZN5boost9intrusive13list_iteratorINS0_8mhtraitsIN8proxygen13SessionHolderENS0_16list_member_hookIJNS0_9link_modeILNS0_14link_mode_typeE1EEEEEEXadL_ZNS4_8listHookEEEEELb1EEC2ERKSB_.exit: ; preds = %entry
  store ptr null, ptr %ref.tmp2.i10, align 8
  store ptr %this1.i11, ptr %this.addr.i4.i, align 8
  store ptr %ref.tmp.i9, ptr %n_ptr.addr.i.i, align 8
  store ptr %ref.tmp2.i10, ptr %.addr.i.i, align 8
  %this1.i5.i = load ptr, ptr %this.addr.i4.i, align 8
  %9 = load ptr, ptr %n_ptr.addr.i.i, align 8
  %10 = load ptr, ptr %9, align 8
  store ptr %10, ptr %this1.i5.i, align 8
  br label %_ZN5boost9intrusive9list_implINS0_8mhtraitsIN8proxygen13SessionHolderENS0_16list_member_hookIJNS0_9link_modeILNS0_14link_mode_typeE1EEEEEEXadL_ZNS4_8listHookEEEEEmLb1EvE5eraseENS0_13list_iteratorISA_Lb1EEE.exit

terminate.lpad.i:                                 ; No predecessors!
  %11 = landingpad { ptr, i32 }
          catch ptr null
  %12 = extractvalue { ptr, i32 } %11, 0
  call void @__clang_call_terminate(ptr %12) #15
  unreachable

_ZN5boost9intrusive9list_implINS0_8mhtraitsIN8proxygen13SessionHolderENS0_16list_member_hookIJNS0_9link_modeILNS0_14link_mode_typeE1EEEEEEXadL_ZNS4_8listHookEEEEEmLb1EvE5eraseENS0_13list_iteratorISA_Lb1EEE.exit: ; preds = %_ZN5boost9intrusive13list_iteratorINS0_8mhtraitsIN8proxygen13SessionHolderENS0_16list_member_hookIJNS0_9link_modeILNS0_14link_mode_typeE1EEEEEEXadL_ZNS4_8listHookEEEEELb1EEC2ERKSB_.exit
  call void @_ZN5boost9intrusive9list_implINS0_8mhtraitsIN8proxygen13SessionHolderENS0_16list_member_hookIJNS0_9link_modeILNS0_14link_mode_typeE1EEEEEEXadL_ZNS4_8listHookEEEEEmLb1EvE17erase_and_disposeINS0_6detail13null_disposerEEENS0_13list_iteratorISA_Lb0EEENSF_ISA_Lb1EEET_(ptr sret(%"class.boost::intrusive::list_iterator") align 8 %tmp, ptr noundef nonnull align 8 dereferenceable(24) %this1.i, ptr noundef %agg.tmp.i) #3
  ret void
}